; ModuleID = '10/1166.cpp'
source_filename = "10/1166.cpp"
target datalayout = "e-m:e-p270:32:32-p271:32:32-p272:64:64-i64:64-f80:128-n8:16:32:64-S128"
target triple = "x86_64-pc-linux-gnu"

%"class.std::ios_base::Init" = type { i8 }
%"class.std::basic_istream" = type { i32 (...)**, i64, %"class.std::basic_ios" }
%"class.std::basic_ios" = type { %"class.std::ios_base", %"class.std::basic_ostream"*, i8, i8, %"class.std::basic_streambuf"*, %"class.std::ctype"*, %"class.std::num_put"*, %"class.std::num_get"* }
%"class.std::ios_base" = type { i32 (...)**, i64, i64, i32, i32, i32, %"struct.std::ios_base::_Callback_list"*, %"struct.std::ios_base::_Words", [8 x %"struct.std::ios_base::_Words"], i32, %"struct.std::ios_base::_Words"*, %"class.std::locale" }
%"struct.std::ios_base::_Callback_list" = type { %"struct.std::ios_base::_Callback_list"*, void (i32, %"class.std::ios_base"*, i32)*, i32, i32 }
%"struct.std::ios_base::_Words" = type { i8*, i64 }
%"class.std::locale" = type { %"class.std::locale::_Impl"* }
%"class.std::locale::_Impl" = type { i32, %"class.std::locale::facet"**, i64, %"class.std::locale::facet"**, i8** }
%"class.std::locale::facet" = type <{ i32 (...)**, i32, [4 x i8] }>
%"class.std::basic_ostream" = type { i32 (...)**, %"class.std::basic_ios" }
%"class.std::basic_streambuf" = type { i32 (...)**, i8*, i8*, i8*, i8*, i8*, i8*, %"class.std::locale" }
%"class.std::ctype" = type <{ %"class.std::locale::facet.base", [4 x i8], %struct.__locale_struct*, i8, [7 x i8], i32*, i32*, i16*, i8, [256 x i8], [256 x i8], i8, [6 x i8] }>
%"class.std::locale::facet.base" = type <{ i32 (...)**, i32 }>
%struct.__locale_struct = type { [13 x %struct.__locale_data*], i16*, i32*, i32*, [13 x i8*] }
%struct.__locale_data = type opaque
%"class.std::num_put" = type { %"class.std::locale::facet.base", [4 x i8] }
%"class.std::num_get" = type { %"class.std::locale::facet.base", [4 x i8] }

@_ZStL8__ioinit = internal global %"class.std::ios_base::Init" zeroinitializer, align 1
@__dso_handle = external hidden global i8
@k = dso_local global i32 0, align 4
@high = dso_local global [30 x i32] zeroinitializer, align 16
@_ZSt3cin = external dso_local global %"class.std::basic_istream", align 8
@_ZSt4cout = external dso_local global %"class.std::basic_ostream", align 8
@llvm.global_ctors = appending global [1 x { i32, void ()*, i8* }] [{ i32, void ()*, i8* } { i32 65535, void ()* @_GLOBAL__sub_I_1166.cpp, i8* null }]

; Function Attrs: noinline uwtable
define internal void @__cxx_global_var_init() #0 section ".text.startup" {
  call void @_ZNSt8ios_base4InitC1Ev(%"class.std::ios_base::Init"* @_ZStL8__ioinit)
  %1 = call i32 @__cxa_atexit(void (i8*)* bitcast (void (%"class.std::ios_base::Init"*)* @_ZNSt8ios_base4InitD1Ev to void (i8*)*), i8* getelementptr inbounds (%"class.std::ios_base::Init", %"class.std::ios_base::Init"* @_ZStL8__ioinit, i32 0, i32 0), i8* @__dso_handle) #3
  ret void
}

declare dso_local void @_ZNSt8ios_base4InitC1Ev(%"class.std::ios_base::Init"*) unnamed_addr #1

; Function Attrs: nounwind
declare dso_local void @_ZNSt8ios_base4InitD1Ev(%"class.std::ios_base::Init"*) unnamed_addr #2

; Function Attrs: nounwind
declare dso_local i32 @__cxa_atexit(void (i8*)*, i8*, i8*) #3

; Function Attrs: noinline uwtable
define dso_local i32 @_Z2ffiii(i32 %0, i32 %1, i32 %2) #0 {
  %4 = alloca i32, align 4
  %5 = alloca i32, align 4
  %6 = alloca i32, align 4
  %7 = alloca i32, align 4
  %8 = alloca i32, align 4
  %9 = alloca i32, align 4
  store i32 %0, i32* %5, align 4
  store i32 %1, i32* %6, align 4
  store i32 %2, i32* %7, align 4
  %10 = load i32, i32* %5, align 4
  %11 = load i32, i32* @k, align 4
  %12 = icmp eq i32 %10, %11
  br i1 %12, label %13, label %15

13:                                               ; preds = %3
  %14 = load i32, i32* %7, align 4
  store i32 %14, i32* %4, align 4
  br label %50

15:                                               ; preds = %3
  %16 = load i32, i32* %5, align 4
  %17 = sext i32 %16 to i64
  %18 = getelementptr inbounds [30 x i32], [30 x i32]* @high, i64 0, i64 %17
  %19 = load i32, i32* %18, align 4
  %20 = load i32, i32* %6, align 4
  %21 = icmp sle i32 %19, %20
  br i1 %21, label %22, label %44

22:                                               ; preds = %15
  %23 = load i32, i32* %5, align 4
  %24 = add nsw i32 %23, 1
  %25 = load i32, i32* %5, align 4
  %26 = sext i32 %25 to i64
  %27 = getelementptr inbounds [30 x i32], [30 x i32]* @high, i64 0, i64 %26
  %28 = load i32, i32* %27, align 4
  %29 = load i32, i32* %7, align 4
  %30 = add nsw i32 %29, 1
  %31 = call i32 @_Z2ffiii(i32 %24, i32 %28, i32 %30)
  store i32 %31, i32* %8, align 4
  %32 = load i32, i32* %5, align 4
  %33 = add nsw i32 %32, 1
  %34 = load i32, i32* %6, align 4
  %35 = load i32, i32* %7, align 4
  %36 = call i32 @_Z2ffiii(i32 %33, i32 %34, i32 %35)
  store i32 %36, i32* %9, align 4
  %37 = load i32, i32* %8, align 4
  %38 = load i32, i32* %9, align 4
  %39 = icmp sgt i32 %37, %38
  br i1 %39, label %40, label %42

40:                                               ; preds = %22
  %41 = load i32, i32* %8, align 4
  store i32 %41, i32* %4, align 4
  br label %50

42:                                               ; preds = %22
  %43 = load i32, i32* %9, align 4
  store i32 %43, i32* %4, align 4
  br label %50

44:                                               ; preds = %15
  %45 = load i32, i32* %5, align 4
  %46 = add nsw i32 %45, 1
  %47 = load i32, i32* %6, align 4
  %48 = load i32, i32* %7, align 4
  %49 = call i32 @_Z2ffiii(i32 %46, i32 %47, i32 %48)
  store i32 %49, i32* %4, align 4
  br label %50

50:                                               ; preds = %44, %42, %40, %13
  %51 = load i32, i32* %4, align 4
  ret i32 %51
}

; Function Attrs: noinline norecurse uwtable
define dso_local i32 @main() #4 {
  %1 = alloca i32, align 4
  %2 = alloca i32, align 4
  %3 = alloca i32, align 4
  store i32 0, i32* %1, align 4
  %4 = call dereferenceable(280) %"class.std::basic_istream"* @_ZNSirsERi(%"class.std::basic_istream"* @_ZSt3cin, i32* dereferenceable(4) @k)
  store i32 0, i32* %2, align 4
  br label %5

5:                                                ; preds = %14, %0
  %6 = load i32, i32* %2, align 4
  %7 = load i32, i32* @k, align 4
  %8 = icmp slt i32 %6, %7
  br i1 %8, label %9, label %17

9:                                                ; preds = %5
  %10 = load i32, i32* %2, align 4
  %11 = sext i32 %10 to i64
  %12 = getelementptr inbounds [30 x i32], [30 x i32]* @high, i64 0, i64 %11
  %13 = call dereferenceable(280) %"class.std::basic_istream"* @_ZNSirsERi(%"class.std::basic_istream"* @_ZSt3cin, i32* dereferenceable(4) %12)
  br label %14

14:                                               ; preds = %9
  %15 = load i32, i32* %2, align 4
  %16 = add nsw i32 %15, 1
  store i32 %16, i32* %2, align 4
  br label %5

17:                                               ; preds = %5
  %18 = call i32 @_Z2ffiii(i32 0, i32 99999, i32 0)
  store i32 %18, i32* %3, align 4
  %19 = load i32, i32* %3, align 4
  %20 = call dereferenceable(272) %"class.std::basic_ostream"* @_ZNSolsEi(%"class.std::basic_ostream"* @_ZSt4cout, i32 %19)
  %21 = call dereferenceable(272) %"class.std::basic_ostream"* @_ZNSolsEPFRSoS_E(%"class.std::basic_ostream"* %20, %"class.std::basic_ostream"* (%"class.std::basic_ostream"*)* @_ZSt4endlIcSt11char_traitsIcEERSt13basic_ostreamIT_T0_ES6_)
  ret i32 0
}

declare dso_local dereferenceable(280) %"class.std::basic_istream"* @_ZNSirsERi(%"class.std::basic_istream"*, i32* dereferenceable(4)) #1

declare dso_local dereferenceable(272) %"class.std::basic_ostream"* @_ZNSolsEi(%"class.std::basic_ostream"*, i32) #1

declare dso_local dereferenceable(272) %"class.std::basic_ostream"* @_ZNSolsEPFRSoS_E(%"class.std::basic_ostream"*, %"class.std::basic_ostream"* (%"class.std::basic_ostream"*)*) #1

declare dso_local dereferenceable(272) %"class.std::basic_ostream"* @_ZSt4endlIcSt11char_traitsIcEERSt13basic_ostreamIT_T0_ES6_(%"class.std::basic_ostream"* dereferenceable(272)) #1

; Function Attrs: noinline uwtable
define internal void @_GLOBAL__sub_I_1166.cpp() #0 section ".text.startup" {
  call void @__cxx_global_var_init()
  ret void
}


!llvm.module.flags = !{!0}
!llvm.ident = !{!1}

!0 = !{i32 1, !"wchar_size", i32 4}
!1 = !{!"clang version 10.0.0-4ubuntu1 "}
